; ModuleID = '62/2850.c'
source_filename = "62/2850.c"
target datalayout = "e-m:e-p270:32:32-p271:32:32-p272:64:64-i64:64-f80:128-n8:16:32:64-S128"
target triple = "x86_64-pc-linux-gnu"

@.str = private unnamed_addr constant [3 x i8] c"%c\00", align 1

; Function Attrs: noinline nounwind uwtable
define dso_local i32 @main() #0 {
  %1 = alloca i32, align 4
  %2 = alloca i8, align 1
  %3 = alloca i8, align 1
  store i32 0, i32* %1, align 4
  %4 = call i32 @getchar()
  %5 = trunc i32 %4 to i8
  store i8 %5, i8* %2, align 1
  %6 = load i8, i8* %2, align 1
  %7 = sext i8 %6 to i32
  %8 = call i32 (i8*, ...) @printf(i8* getelementptr inbounds ([3 x i8], [3 x i8]* @.str, i64 0, i64 0), i32 %7)
  %9 = call i32 @getchar()
  %10 = trunc i32 %9 to i8
  store i8 %10, i8* %3, align 1
  br label %11

11:                                               ; preds = %27, %0
  %12 = load i8, i8* %3, align 1
  %13 = sext i8 %12 to i32
  %14 = icmp ne i32 %13, -1
  br i1 %14, label %15, label %31

15:                                               ; preds = %11
  %16 = load i8, i8* %2, align 1
  %17 = sext i8 %16 to i32
  %18 = icmp eq i32 %17, 32
  br i1 %18, label %19, label %23

19:                                               ; preds = %15
  %20 = load i8, i8* %3, align 1
  %21 = sext i8 %20 to i32
  %22 = icmp eq i32 %21, 32
  br i1 %22, label %27, label %23

23:                                               ; preds = %19, %15
  %24 = load i8, i8* %3, align 1
  %25 = sext i8 %24 to i32
  %26 = call i32 (i8*, ...) @printf(i8* getelementptr inbounds ([3 x i8], [3 x i8]* @.str, i64 0, i64 0), i32 %25)
  br label %27

27:                                               ; preds = %23, %19
  %28 = load i8, i8* %3, align 1
  store i8 %28, i8* %2, align 1
  %29 = call i32 @getchar()
  %30 = trunc i32 %29 to i8
  store i8 %30, i8* %3, align 1
  br label %11

31:                                               ; preds = %11
  ret i32 0
}

declare dso_local i32 @getchar() #1

declare dso_local i32 @printf(i8*, ...) #1


!llvm.module.flags = !{!0}
!llvm.ident = !{!1}

!0 = !{i32 1, !"wchar_size", i32 4}
!1 = !{!"clang version 10.0.0-4ubuntu1 "}
